target datalayout = "e-m:e-p270:32:32-p271:32:32-p272:64:64-i64:64-i128:128-f80:128-n8:16:32:64-S128"
target triple = "x86_64-pc-linux-gnu"

%"class.std::__1::locale::facet" = type { %"class.std::__1::__shared_count" }
%"class.std::__1::__shared_count" = type { ptr, i64 }
%"class.std::__1::codecvt.39" = type { %"class.std::__1::locale::facet" }
%"class.std::__1::__codecvt_utf8_utf16.76" = type <{ %"class.std::__1::codecvt.39", i64, i32, [4 x i8] }>

; Function Attrs: mustprogress uwtable
define dso_local noundef i32 @_ZNKSt3__120__codecvt_utf8_utf16IDsE5do_inER11__mbstate_tPKcS5_RS5_PDsS7_RS7_(ptr noundef nonnull align 8 dereferenceable(28) %0, ptr noundef nonnull align 4 dereferenceable(8) %1, ptr noundef %2, ptr noundef %3, ptr noundef nonnull align 8 dereferenceable(8) %4, ptr noundef %5, ptr noundef %6, ptr noundef nonnull align 8 dereferenceable(8) %7) unnamed_addr #2 align 2 {
  %9 = alloca ptr, align 8
  %10 = alloca ptr, align 8
  %11 = alloca ptr, align 8
  %12 = alloca ptr, align 8
  %13 = alloca ptr, align 8
  %14 = alloca ptr, align 8
  %15 = alloca ptr, align 8
  %16 = alloca ptr, align 8
  %17 = alloca ptr, align 8
  %18 = alloca ptr, align 8
  %19 = alloca ptr, align 8
  %20 = alloca ptr, align 8
  %21 = alloca ptr, align 8
  %22 = alloca ptr, align 8
  %23 = alloca i32, align 4
  store ptr %0, ptr %9, align 8, !tbaa !585
  store ptr %1, ptr %10, align 8, !tbaa !55
  store ptr %2, ptr %11, align 8, !tbaa !9
  store ptr %3, ptr %12, align 8, !tbaa !9
  store ptr %4, ptr %13, align 8, !tbaa !95
  store ptr %5, ptr %14, align 8, !tbaa !496
  store ptr %6, ptr %15, align 8, !tbaa !496
  store ptr %7, ptr %16, align 8, !tbaa !498
  %24 = load ptr, ptr %9, align 8
  call void @llvm.lifetime.start.p0(i64 8, ptr %17) #13
  %25 = load ptr, ptr %11, align 8, !tbaa !9
  store ptr %25, ptr %17, align 8, !tbaa !9
  call void @llvm.lifetime.start.p0(i64 8, ptr %18) #13
  %26 = load ptr, ptr %12, align 8, !tbaa !9
  store ptr %26, ptr %18, align 8, !tbaa !9
  call void @llvm.lifetime.start.p0(i64 8, ptr %19) #13
  %27 = load ptr, ptr %17, align 8, !tbaa !9
  store ptr %27, ptr %19, align 8, !tbaa !9
  call void @llvm.lifetime.start.p0(i64 8, ptr %20) #13
  %28 = load ptr, ptr %14, align 8, !tbaa !496
  store ptr %28, ptr %20, align 8, !tbaa !70
  call void @llvm.lifetime.start.p0(i64 8, ptr %21) #13
  %29 = load ptr, ptr %15, align 8, !tbaa !496
  store ptr %29, ptr %21, align 8, !tbaa !70
  call void @llvm.lifetime.start.p0(i64 8, ptr %22) #13
  %30 = load ptr, ptr %20, align 8, !tbaa !70
  store ptr %30, ptr %22, align 8, !tbaa !70
  call void @llvm.lifetime.start.p0(i64 4, ptr %23) #13
  %31 = load ptr, ptr %17, align 8, !tbaa !9
  %32 = load ptr, ptr %18, align 8, !tbaa !9
  %33 = load ptr, ptr %20, align 8, !tbaa !70
  %34 = load ptr, ptr %21, align 8, !tbaa !70
  %35 = getelementptr inbounds nuw %"class.std::__1::__codecvt_utf8_utf16.76", ptr %24, i32 0, i32 1
  %36 = load i64, ptr %35, align 8, !tbaa !587
  %37 = getelementptr inbounds nuw %"class.std::__1::__codecvt_utf8_utf16.76", ptr %24, i32 0, i32 2
  %38 = load i32, ptr %37, align 8, !tbaa !589
  %39 = call noundef i32 @_ZNSt3__1L13utf8_to_utf16EPKhS1_RS1_PtS3_RS3_mNS_12codecvt_modeE(ptr noundef %31, ptr noundef %32, ptr noundef nonnull align 8 dereferenceable(8) %19, ptr noundef %33, ptr noundef %34, ptr noundef nonnull align 8 dereferenceable(8) %22, i64 noundef %36, i32 noundef %38)
  store i32 %39, ptr %23, align 4, !tbaa !337
  %40 = load ptr, ptr %11, align 8, !tbaa !9
  %41 = load ptr, ptr %19, align 8, !tbaa !9
  %42 = load ptr, ptr %17, align 8, !tbaa !9
  %43 = ptrtoint ptr %41 to i64
  %44 = ptrtoint ptr %42 to i64
  %45 = sub i64 %43, %44
  %46 = getelementptr inbounds i8, ptr %40, i64 %45
  %47 = load ptr, ptr %13, align 8, !tbaa !95
  store ptr %46, ptr %47, align 8, !tbaa !9
  %48 = load ptr, ptr %14, align 8, !tbaa !496
  %49 = load ptr, ptr %22, align 8, !tbaa !70
  %50 = load ptr, ptr %20, align 8, !tbaa !70
  %51 = ptrtoint ptr %49 to i64
  %52 = ptrtoint ptr %50 to i64
  %53 = sub i64 %51, %52
  %54 = sdiv exact i64 %53, 2
  %55 = getelementptr inbounds i16, ptr %48, i64 %54
  %56 = load ptr, ptr %16, align 8, !tbaa !498
  store ptr %55, ptr %56, align 8, !tbaa !496
  %57 = load i32, ptr %23, align 4, !tbaa !337
  call void @llvm.lifetime.end.p0(i64 4, ptr %23) #13
  call void @llvm.lifetime.end.p0(i64 8, ptr %22) #13
  call void @llvm.lifetime.end.p0(i64 8, ptr %21) #13
  call void @llvm.lifetime.end.p0(i64 8, ptr %20) #13
  call void @llvm.lifetime.end.p0(i64 8, ptr %19) #13
  call void @llvm.lifetime.end.p0(i64 8, ptr %18) #13
  call void @llvm.lifetime.end.p0(i64 8, ptr %17) #13
  ret i32 %57
}